ccopy_reg
_reconstructor
p0
(cnltk.classify.naivebayes
NaiveBayesClassifier
p1
c__builtin__
object
p2
Ntp3
Rp4
(dp5
S'_labels'
p6
(lp7
S'male'
p8
aS'female'
p9
asS'_feature_probdist'
p10
(dp11
(g9
S'has(h)'
p12
tp13
g0
(cnltk.probability
ELEProbDist
p14
g2
Ntp15
Rp16
(dp17
S'_gamma'
p18
F0.5
sS'_N'
p19
I2057
sS'_freqdist'
p20
cnltk.probability
FreqDist
p21
((dp22
I00
I1836
sI01
I221
stp23
Rp24
sS'_bins'
p25
I2
sS'_divisor'
p26
F2058.0
sbs(g9
S'has(s)'
p27
tp28
g0
(g14
g2
Ntp29
Rp30
(dp31
g18
F0.5
sg19
I2057
sg20
g21
((dp32
I00
I1726
sI01
I331
stp33
Rp34
sg25
I2
sg26
F2058.0
sbs(g8
S'has(a)'
p35
tp36
g0
(g14
g2
Ntp37
Rp38
(dp39
g18
F0.5
sg19
I2943
sg20
g21
((dp40
I00
I1463
sI01
I1480
stp41
Rp42
sg25
I2
sg26
F2944.0
sbs(g9
S'count(s)'
p43
tp44
g0
(g14
g2
Ntp45
Rp46
(dp47
g18
F0.5
sg19
I2057
sg20
g21
((dp48
I0
I1726
sI1
I270
sI2
I59
sI3
I2
stp49
Rp50
sg25
I4
sg26
F2059.0
sbs(g8
S'has(w)'
p51
tp52
g0
(g14
g2
Ntp53
Rp54
(dp55
g18
F0.5
sg19
I2943
sg20
g21
((dp56
I00
I2688
sI01
I255
stp57
Rp58
sg25
I2
sg26
F2944.0
sbs(g9
S'count(d)'
p59
tp60
g0
(g14
g2
Ntp61
Rp62
(dp63
g18
F0.5
sg19
I2057
sg20
g21
((dp64
I0
I1443
sI1
I575
sI2
I39
stp65
Rp66
sg25
I4
sg26
F2059.0
sbs(g8
S'has(p)'
p67
tp68
g0
(g14
g2
Ntp69
Rp70
(dp71
g18
F0.5
sg19
I2943
sg20
g21
((dp72
I00
I2751
sI01
I192
stp73
Rp74
sg25
I2
sg26
F2944.0
sbs(g9
S'has(e)'
p75
tp76
g0
(g14
g2
Ntp77
Rp78
(dp79
g18
F0.5
sg19
I2057
sg20
g21
((dp80
I00
I713
sI01
I1344
stp81
Rp82
sg25
I2
sg26
F2058.0
sbs(g8
S'count(o)'
p83
tp84
g0
(g14
g2
Ntp85
Rp86
(dp87
g18
F0.5
sg19
I2943
sg20
g21
((dp88
I0
I1950
sI1
I869
sI2
I112
sI3
I12
stp89
Rp90
sg25
I4
sg26
F2945.0
sbs(g8
S'count(b)'
p91
tp92
g0
(g14
g2
Ntp93
Rp94
(dp95
g18
F0.5
sg19
I2943
sg20
g21
((dp96
I0
I2586
sI1
I330
sI2
I23
sI3
I4
stp97
Rp98
sg25
I4
sg26
F2945.0
sbs(g9
S'has(l)'
p99
tp100
g0
(g14
g2
Ntp101
Rp102
(dp103
g18
F0.5
sg19
I2057
sg20
g21
((dp104
I00
I1184
sI01
I873
stp105
Rp106
sg25
I2
sg26
F2058.0
sbs(g8
S'has(y)'
p107
tp108
g0
(g14
g2
Ntp109
Rp110
(dp111
g18
F0.5
sg19
I2943
sg20
g21
((dp112
I00
I2456
sI01
I487
stp113
Rp114
sg25
I2
sg26
F2944.0
sbs(g9
S'has(w)'
p115
tp116
g0
(g14
g2
Ntp117
Rp118
(dp119
g18
F0.5
sg19
I2057
sg20
g21
((dp120
I00
I2045
sI01
I12
stp121
Rp122
sg25
I2
sg26
F2058.0
sbs(g8
S'has(q)'
p123
tp124
g0
(g14
g2
Ntp125
Rp126
(dp127
g18
F0.5
sg19
I2943
sg20
g21
((dp128
I00
I2921
sI01
I22
stp129
Rp130
sg25
I2
sg26
F2944.0
sbs(g8
S'count(p)'
p131
tp132
g0
(g14
g2
Ntp133
Rp134
(dp135
g18
F0.5
sg19
I2943
sg20
g21
((dp136
I0
I2751
sI1
I174
sI2
I17
sI3
I1
stp137
Rp138
sg25
I4
sg26
F2945.0
sbs(g9
S'has(j)'
p139
tp140
g0
(g14
g2
Ntp141
Rp142
(dp143
g18
F0.5
sg19
I2057
sg20
g21
((dp144
I00
I2048
sI01
I9
stp145
Rp146
sg25
I2
sg26
F2058.0
sbs(g9
S'has(u)'
p147
tp148
g0
(g14
g2
Ntp149
Rp150
(dp151
g18
F0.5
sg19
I2057
sg20
g21
((dp152
I00
I1932
sI01
I125
stp153
Rp154
sg25
I2
sg26
F2058.0
sbs(g9
S'has(n)'
p155
tp156
g0
(g14
g2
Ntp157
Rp158
(dp159
g18
F0.5
sg19
I2057
sg20
g21
((dp160
I00
I1150
sI01
I907
stp161
Rp162
sg25
I2
sg26
F2058.0
sbs(g8
S'count(w)'
p163
tp164
g0
(g14
g2
Ntp165
Rp166
(dp167
g18
F0.5
sg19
I2943
sg20
g21
((dp168
I0
I2688
sI1
I251
sI2
I4
stp169
Rp170
sg25
I3
sg26
F2944.5
sbs(g8
S'has(b)'
p171
tp172
g0
(g14
g2
Ntp173
Rp174
(dp175
g18
F0.5
sg19
I2943
sg20
g21
((dp176
I00
I2586
sI01
I357
stp177
Rp178
sg25
I2
sg26
F2944.0
sbs(g9
S'count(p)'
p179
tp180
g0
(g14
g2
Ntp181
Rp182
(dp183
g18
F0.5
sg19
I2057
sg20
g21
((dp184
I0
I2037
sI1
I17
sI2
I3
stp185
Rp186
sg25
I4
sg26
F2059.0
sbs(g8
S'has(j)'
p187
tp188
g0
(g14
g2
Ntp189
Rp190
(dp191
g18
F0.5
sg19
I2943
sg20
g21
((dp192
I00
I2780
sI01
I163
stp193
Rp194
sg25
I2
sg26
F2944.0
sbs(g8
S'has(n)'
p195
tp196
g0
(g14
g2
Ntp197
Rp198
(dp199
g18
F0.5
sg19
I2943
sg20
g21
((dp200
I00
I1827
sI01
I1116
stp201
Rp202
sg25
I2
sg26
F2944.0
sbs(g8
S'count(g)'
p203
tp204
g0
(g14
g2
Ntp205
Rp206
(dp207
g18
F0.5
sg19
I2943
sg20
g21
((dp208
I0
I2611
sI1
I304
sI2
I26
sI3
I2
stp209
Rp210
sg25
I4
sg26
F2945.0
sbs(g8
S'count(k)'
p211
tp212
g0
(g14
g2
Ntp213
Rp214
(dp215
g18
F0.5
sg19
I2943
sg20
g21
((dp216
I0
I2693
sI1
I246
sI2
I4
stp217
Rp218
sg25
I3
sg26
F2944.5
sbs(g8
S'count(n)'
p219
tp220
g0
(g14
g2
Ntp221
Rp222
(dp223
g18
F0.5
sg19
I2943
sg20
g21
((dp224
I0
I1827
sI1
I940
sI2
I166
sI3
I10
stp225
Rp226
sg25
I5
sg26
F2945.5
sbs(g8
S'has(o)'
p227
tp228
g0
(g14
g2
Ntp229
Rp230
(dp231
g18
F0.5
sg19
I2943
sg20
g21
((dp232
I00
I1950
sI01
I993
stp233
Rp234
sg25
I2
sg26
F2944.0
sbs(g8
S'has(h)'
p235
tp236
g0
(g14
g2
Ntp237
Rp238
(dp239
g18
F0.5
sg19
I2943
sg20
g21
((dp240
I00
I2352
sI01
I591
stp241
Rp242
sg25
I2
sg26
F2944.0
sbs(g9
S'has(a)'
p243
tp244
g0
(g14
g2
Ntp245
Rp246
(dp247
g18
F0.5
sg19
I2057
sg20
g21
((dp248
I00
I602
sI01
I1455
stp249
Rp250
sg25
I2
sg26
F2058.0
sbs(g8
S'count(s)'
p251
tp252
g0
(g14
g2
Ntp253
Rp254
(dp255
g18
F0.5
sg19
I2943
sg20
g21
((dp256
I0
I2219
sI1
I646
sI2
I76
sI3
I2
stp257
Rp258
sg25
I4
sg26
F2945.0
sbs(g9
S'alwayson'
p259
tp260
g0
(g14
g2
Ntp261
Rp262
(dp263
g18
F0.5
sg19
I2057
sg20
g21
((dp264
I01
I2057
stp265
Rp266
sg25
I1
sg26
F2057.5
sbs(g9
S'has(d)'
p267
tp268
g0
(g14
g2
Ntp269
Rp270
(dp271
g18
F0.5
sg19
I2057
sg20
g21
((dp272
I00
I1443
sI01
I614
stp273
Rp274
sg25
I2
sg26
F2058.0
sbs(g9
S'has(o)'
p275
tp276
g0
(g14
g2
Ntp277
Rp278
(dp279
g18
F0.5
sg19
I2057
sg20
g21
((dp280
I00
I1669
sI01
I388
stp281
Rp282
sg25
I2
sg26
F2058.0
sbs(g8
S'has(i)'
p283
tp284
g0
(g14
g2
Ntp285
Rp286
(dp287
g18
F0.5
sg19
I2943
sg20
g21
((dp288
I00
I1809
sI01
I1134
stp289
Rp290
sg25
I2
sg26
F2944.0
sbs(g9
S'count(y)'
p291
tp292
g0
(g14
g2
Ntp293
Rp294
(dp295
g18
F0.5
sg19
I2057
sg20
g21
((dp296
I0
I1715
sI1
I340
sI2
I2
stp297
Rp298
sg25
I3
sg26
F2058.5
sbs(g9
S'count(b)'
p299
tp300
g0
(g14
g2
Ntp301
Rp302
(dp303
g18
F0.5
sg19
I2057
sg20
g21
((dp304
I0
I1705
sI1
I308
sI2
I39
sI3
I5
stp305
Rp306
sg25
I4
sg26
F2059.0
sbs(g9
S'count(m)'
p307
tp308
g0
(g14
g2
Ntp309
Rp310
(dp311
g18
F0.5
sg19
I2057
sg20
g21
((dp312
I0
I1883
sI1
I156
sI2
I17
sI3
I1
stp313
Rp314
sg25
I4
sg26
F2059.0
sbs(g8
S'has(l)'
p315
tp316
g0
(g14
g2
Ntp317
Rp318
(dp319
g18
F0.5
sg19
I2943
sg20
g21
((dp320
I00
I1986
sI01
I957
stp321
Rp322
sg25
I2
sg26
F2944.0
sbs(g9
S'has(f)'
p323
tp324
g0
(g14
g2
Ntp325
Rp326
(dp327
g18
F0.5
sg19
I2057
sg20
g21
((dp328
I00
I1899
sI01
I158
stp329
Rp330
sg25
I2
sg26
F2058.0
sbs(g9
S'has(q)'
p331
tp332
g0
(g14
g2
Ntp333
Rp334
(dp335
g18
F0.5
sg19
I2057
sg20
g21
((dp336
I00
I2053
sI01
I4
stp337
Rp338
sg25
I2
sg26
F2058.0
sbs(g8
S'count(z)'
p339
tp340
g0
(g14
g2
Ntp341
Rp342
(dp343
g18
F0.5
sg19
I2943
sg20
g21
((dp344
I0
I2868
sI1
I71
sI2
I4
stp345
Rp346
sg25
I3
sg26
F2944.5
sbs(g9
S'has(t)'
p347
tp348
g0
(g14
g2
Ntp349
Rp350
(dp351
g18
F0.5
sg19
I2057
sg20
g21
((dp352
I00
I1627
sI01
I430
stp353
Rp354
sg25
I2
sg26
F2058.0
sbs(g9
S'has(x)'
p355
tp356
g0
(g14
g2
Ntp357
Rp358
(dp359
g18
F0.5
sg19
I2057
sg20
g21
((dp360
I00
I2043
sI01
I14
stp361
Rp362
sg25
I2
sg26
F2058.0
sbs(g8
S'count(y)'
p363
tp364
g0
(g14
g2
Ntp365
Rp366
(dp367
g18
F0.5
sg19
I2943
sg20
g21
((dp368
I0
I2456
sI1
I482
sI2
I5
stp369
Rp370
sg25
I3
sg26
F2944.5
sbs(g8
S'has(m)'
p371
tp372
g0
(g14
g2
Ntp373
Rp374
(dp375
g18
F0.5
sg19
I2943
sg20
g21
((dp376
I00
I2423
sI01
I520
stp377
Rp378
sg25
I2
sg26
F2944.0
sbs(g9
S'count(u)'
p379
tp380
g0
(g14
g2
Ntp381
Rp382
(dp383
g18
F0.5
sg19
I2057
sg20
g21
((dp384
I0
I1932
sI1
I121
sI2
I4
stp385
Rp386
sg25
I4
sg26
F2059.0
sbs(g8
S'count(m)'
p387
tp388
g0
(g14
g2
Ntp389
Rp390
(dp391
g18
F0.5
sg19
I2943
sg20
g21
((dp392
I0
I2423
sI1
I477
sI2
I40
sI3
I3
stp393
Rp394
sg25
I4
sg26
F2945.0
sbs(g9
S'count(i)'
p395
tp396
g0
(g14
g2
Ntp397
Rp398
(dp399
g18
F0.5
sg19
I2057
sg20
g21
((dp400
I0
I984
sI1
I971
sI2
I102
stp401
Rp402
sg25
I4
sg26
F2059.0
sbs(g8
S'has(f)'
p403
tp404
g0
(g14
g2
Ntp405
Rp406
(dp407
g18
F0.5
sg19
I2943
sg20
g21
((dp408
I00
I2742
sI01
I201
stp409
Rp410
sg25
I2
sg26
F2944.0
sbs(g9
S'count(c)'
p411
tp412
g0
(g14
g2
Ntp413
Rp414
(dp415
g18
F0.5
sg19
I2057
sg20
g21
((dp416
I0
I1475
sI1
I553
sI2
I29
stp417
Rp418
sg25
I3
sg26
F2058.5
sbs(g8
S'has(e)'
p419
tp420
g0
(g14
g2
Ntp421
Rp422
(dp423
g18
F0.5
sg19
I2943
sg20
g21
((dp424
I00
I1338
sI01
I1605
stp425
Rp426
sg25
I2
sg26
F2944.0
sbs(g8
S'count(v)'
p427
tp428
g0
(g14
g2
Ntp429
Rp430
(dp431
g18
F0.5
sg19
I2943
sg20
g21
((dp432
I0
I2740
sI1
I202
sI2
I1
stp433
Rp434
sg25
I3
sg26
F2944.5
sbs(g8
S'count(j)'
p435
tp436
g0
(g14
g2
Ntp437
Rp438
(dp439
g18
F0.5
sg19
I2943
sg20
g21
((dp440
I0
I2780
sI1
I163
stp441
Rp442
sg25
I2
sg26
F2944.0
sbs(g8
S'has(g)'
p443
tp444
g0
(g14
g2
Ntp445
Rp446
(dp447
g18
F0.5
sg19
I2943
sg20
g21
((dp448
I00
I2611
sI01
I332
stp449
Rp450
sg25
I2
sg26
F2944.0
sbs(g8
S'count(u)'
p451
tp452
g0
(g14
g2
Ntp453
Rp454
(dp455
g18
F0.5
sg19
I2943
sg20
g21
((dp456
I0
I2523
sI1
I407
sI2
I12
sI3
I1
stp457
Rp458
sg25
I4
sg26
F2945.0
sbs(g8
S'has(k)'
p459
tp460
g0
(g14
g2
Ntp461
Rp462
(dp463
g18
F0.5
sg19
I2943
sg20
g21
((dp464
I00
I2693
sI01
I250
stp465
Rp466
sg25
I2
sg26
F2944.0
sbs(g8
S'count(i)'
p467
tp468
g0
(g14
g2
Ntp469
Rp470
(dp471
g18
F0.5
sg19
I2943
sg20
g21
((dp472
I0
I1809
sI1
I1027
sI2
I100
sI3
I7
stp473
Rp474
sg25
I4
sg26
F2945.0
sbs(g9
S'count(e)'
p475
tp476
g0
(g14
g2
Ntp477
Rp478
(dp479
g18
F0.5
sg19
I2057
sg20
g21
((dp480
I0
I713
sI1
I870
sI2
I404
sI3
I64
sI4
I6
stp481
Rp482
sg25
I5
sg26
F2059.5
sbs(g9
S'count(n)'
p483
tp484
g0
(g14
g2
Ntp485
Rp486
(dp487
g18
F0.5
sg19
I2057
sg20
g21
((dp488
I0
I1150
sI1
I683
sI2
I209
sI3
I13
sI4
I2
stp489
Rp490
sg25
I5
sg26
F2059.5
sbs(g9
S'has(z)'
p491
tp492
g0
(g14
g2
Ntp493
Rp494
(dp495
g18
F0.5
sg19
I2057
sg20
g21
((dp496
I00
I2047
sI01
I10
stp497
Rp498
sg25
I2
sg26
F2058.0
sbs(g8
S'count(r)'
p499
tp500
g0
(g14
g2
Ntp501
Rp502
(dp503
g18
F0.5
sg19
I2943
sg20
g21
((dp504
I0
I1515
sI1
I1229
sI2
I195
sI3
I4
stp505
Rp506
sg25
I4
sg26
F2945.0
sbs(g8
S'count(f)'
p507
tp508
g0
(g14
g2
Ntp509
Rp510
(dp511
g18
F0.5
sg19
I2943
sg20
g21
((dp512
I0
I2742
sI1
I163
sI2
I38
stp513
Rp514
sg25
I3
sg26
F2944.5
sbs(g9
S'has(g)'
p515
tp516
g0
(g14
g2
Ntp517
Rp518
(dp519
g18
F0.5
sg19
I2057
sg20
g21
((dp520
I00
I1793
sI01
I264
stp521
Rp522
sg25
I2
sg26
F2058.0
sbs(g9
S'has(k)'
p523
tp524
g0
(g14
g2
Ntp525
Rp526
(dp527
g18
F0.5
sg19
I2057
sg20
g21
((dp528
I00
I2023
sI01
I34
stp529
Rp530
sg25
I2
sg26
F2058.0
sbs(g8
S'count(e)'
p531
tp532
g0
(g14
g2
Ntp533
Rp534
(dp535
g18
F0.5
sg19
I2943
sg20
g21
((dp536
I0
I1338
sI1
I1284
sI2
I292
sI3
I26
sI4
I3
stp537
Rp538
sg25
I5
sg26
F2945.5
sbs(g8
S'has(d)'
p539
tp540
g0
(g14
g2
Ntp541
Rp542
(dp543
g18
F0.5
sg19
I2943
sg20
g21
((dp544
I00
I2255
sI01
I688
stp545
Rp546
sg25
I2
sg26
F2944.0
sbs(g9
S'has(i)'
p547
tp548
g0
(g14
g2
Ntp549
Rp550
(dp551
g18
F0.5
sg19
I2057
sg20
g21
((dp552
I00
I984
sI01
I1073
stp553
Rp554
sg25
I2
sg26
F2058.0
sbs(g8
S'has(z)'
p555
tp556
g0
(g14
g2
Ntp557
Rp558
(dp559
g18
F0.5
sg19
I2943
sg20
g21
((dp560
I00
I2868
sI01
I75
stp561
Rp562
sg25
I2
sg26
F2944.0
sbs(g8
S'count(l)'
p563
tp564
g0
(g14
g2
Ntp565
Rp566
(dp567
g18
F0.5
sg19
I2943
sg20
g21
((dp568
I0
I1986
sI1
I786
sI2
I165
sI3
I5
sI4
I1
stp569
Rp570
sg25
I5
sg26
F2945.5
sbs(g9
S'has(p)'
p571
tp572
g0
(g14
g2
Ntp573
Rp574
(dp575
g18
F0.5
sg19
I2057
sg20
g21
((dp576
I00
I2037
sI01
I20
stp577
Rp578
sg25
I2
sg26
F2058.0
sbs(g8
g259
tp579
g0
(g14
g2
Ntp580
Rp581
(dp582
g18
F0.5
sg19
I2943
sg20
g21
((dp583
I01
I2943
stp584
Rp585
sg25
I1
sg26
F2943.5
sbs(g9
S'count(q)'
p586
tp587
g0
(g14
g2
Ntp588
Rp589
(dp590
g18
F0.5
sg19
I2057
sg20
g21
((dp591
I0
I2053
sI1
I4
stp592
Rp593
sg25
I2
sg26
F2058.0
sbs(g9
S'count(z)'
p594
tp595
g0
(g14
g2
Ntp596
Rp597
(dp598
g18
F0.5
sg19
I2057
sg20
g21
((dp599
I0
I2047
sI1
I10
stp600
Rp601
sg25
I3
sg26
F2058.5
sbs(g9
S'count(o)'
p602
tp603
g0
(g14
g2
Ntp604
Rp605
(dp606
g18
F0.5
sg19
I2057
sg20
g21
((dp607
I0
I1669
sI1
I363
sI2
I25
stp608
Rp609
sg25
I4
sg26
F2059.0
sbs(g8
S'has(t)'
p610
tp611
g0
(g14
g2
Ntp612
Rp613
(dp614
g18
F0.5
sg19
I2943
sg20
g21
((dp615
I00
I2179
sI01
I764
stp616
Rp617
sg25
I2
sg26
F2944.0
sbs(g8
S'count(x)'
p618
tp619
g0
(g14
g2
Ntp620
Rp621
(dp622
g18
F0.5
sg19
I2943
sg20
g21
((dp623
I0
I2911
sI1
I31
sI2
I1
stp624
Rp625
sg25
I3
sg26
F2944.5
sbs(g8
S'has(x)'
p626
tp627
g0
(g14
g2
Ntp628
Rp629
(dp630
g18
F0.5
sg19
I2943
sg20
g21
((dp631
I00
I2911
sI01
I32
stp632
Rp633
sg25
I2
sg26
F2944.0
sbs(g9
S'has(b)'
p634
tp635
g0
(g14
g2
Ntp636
Rp637
(dp638
g18
F0.5
sg19
I2057
sg20
g21
((dp639
I00
I1705
sI01
I352
stp640
Rp641
sg25
I2
sg26
F2058.0
sbs(g9
S'has(m)'
p642
tp643
g0
(g14
g2
Ntp644
Rp645
(dp646
g18
F0.5
sg19
I2057
sg20
g21
((dp647
I00
I1883
sI01
I174
stp648
Rp649
sg25
I2
sg26
F2058.0
sbs(g8
S'count(c)'
p650
tp651
g0
(g14
g2
Ntp652
Rp653
(dp654
g18
F0.5
sg19
I2943
sg20
g21
((dp655
I0
I2461
sI1
I464
sI2
I18
stp656
Rp657
sg25
I3
sg26
F2944.5
sbs(g8
S'has(c)'
p658
tp659
g0
(g14
g2
Ntp660
Rp661
(dp662
g18
F0.5
sg19
I2943
sg20
g21
((dp663
I00
I2461
sI01
I482
stp664
Rp665
sg25
I2
sg26
F2944.0
sbs(g8
S'count(q)'
p666
tp667
g0
(g14
g2
Ntp668
Rp669
(dp670
g18
F0.5
sg19
I2943
sg20
g21
((dp671
I0
I2921
sI1
I22
stp672
Rp673
sg25
I2
sg26
F2944.0
sbs(g8
S'has(u)'
p674
tp675
g0
(g14
g2
Ntp676
Rp677
(dp678
g18
F0.5
sg19
I2943
sg20
g21
((dp679
I00
I2523
sI01
I420
stp680
Rp681
sg25
I2
sg26
F2944.0
sbs(g9
S'count(w)'
p682
tp683
g0
(g14
g2
Ntp684
Rp685
(dp686
g18
F0.5
sg19
I2057
sg20
g21
((dp687
I0
I2045
sI1
I12
stp688
Rp689
sg25
I3
sg26
F2058.5
sbs(g9
S'count(v)'
p690
tp691
g0
(g14
g2
Ntp692
Rp693
(dp694
g18
F0.5
sg19
I2057
sg20
g21
((dp695
I0
I1974
sI1
I76
sI2
I7
stp696
Rp697
sg25
I3
sg26
F2058.5
sbs(g9
S'count(a)'
p698
tp699
g0
(g14
g2
Ntp700
Rp701
(dp702
g18
F0.5
sg19
I2057
sg20
g21
((dp703
I0
I602
sI1
I950
sI2
I433
sI3
I62
sI4
I10
stp704
Rp705
sg25
I5
sg26
F2059.5
sbs(g9
S'count(x)'
p706
tp707
g0
(g14
g2
Ntp708
Rp709
(dp710
g18
F0.5
sg19
I2057
sg20
g21
((dp711
I0
I2043
sI1
I14
stp712
Rp713
sg25
I3
sg26
F2058.5
sbs(g9
S'count(j)'
p714
tp715
g0
(g14
g2
Ntp716
Rp717
(dp718
g18
F0.5
sg19
I2057
sg20
g21
((dp719
I0
I2048
sI1
I9
stp720
Rp721
sg25
I2
sg26
F2058.0
sbs(g8
S'count(t)'
p722
tp723
g0
(g14
g2
Ntp724
Rp725
(dp726
g18
F0.5
sg19
I2943
sg20
g21
((dp727
I0
I2179
sI1
I672
sI2
I91
sI3
I1
stp728
Rp729
sg25
I4
sg26
F2945.0
sbs(g9
S'count(l)'
p730
tp731
g0
(g14
g2
Ntp732
Rp733
(dp734
g18
F0.5
sg19
I2057
sg20
g21
((dp735
I0
I1184
sI1
I713
sI2
I155
sI3
I5
stp736
Rp737
sg25
I5
sg26
F2059.5
sbs(g8
S'count(h)'
p738
tp739
g0
(g14
g2
Ntp740
Rp741
(dp742
g18
F0.5
sg19
I2943
sg20
g21
((dp743
I0
I2352
sI1
I553
sI2
I37
sI3
I1
stp744
Rp745
sg25
I4
sg26
F2945.0
sbs(g9
S'has(r)'
p746
tp747
g0
(g14
g2
Ntp748
Rp749
(dp750
g18
F0.5
sg19
I2057
sg20
g21
((dp751
I00
I1133
sI01
I924
stp752
Rp753
sg25
I2
sg26
F2058.0
sbs(g9
S'has(v)'
p754
tp755
g0
(g14
g2
Ntp756
Rp757
(dp758
g18
F0.5
sg19
I2057
sg20
g21
((dp759
I00
I1974
sI01
I83
stp760
Rp761
sg25
I2
sg26
F2058.0
sbs(g9
S'has(c)'
p762
tp763
g0
(g14
g2
Ntp764
Rp765
(dp766
g18
F0.5
sg19
I2057
sg20
g21
((dp767
I00
I1475
sI01
I582
stp768
Rp769
sg25
I2
sg26
F2058.0
sbs(g8
S'has(s)'
p770
tp771
g0
(g14
g2
Ntp772
Rp773
(dp774
g18
F0.5
sg19
I2943
sg20
g21
((dp775
I00
I2219
sI01
I724
stp776
Rp777
sg25
I2
sg26
F2944.0
sbs(g8
S'count(a)'
p778
tp779
g0
(g14
g2
Ntp780
Rp781
(dp782
g18
F0.5
sg19
I2943
sg20
g21
((dp783
I0
I1463
sI1
I1290
sI2
I177
sI3
I13
stp784
Rp785
sg25
I5
sg26
F2945.5
sbs(g9
S'count(r)'
p786
tp787
g0
(g14
g2
Ntp788
Rp789
(dp790
g18
F0.5
sg19
I2057
sg20
g21
((dp791
I0
I1133
sI1
I851
sI2
I73
stp792
Rp793
sg25
I4
sg26
F2059.0
sbs(g9
S'count(t)'
p794
tp795
g0
(g14
g2
Ntp796
Rp797
(dp798
g18
F0.5
sg19
I2057
sg20
g21
((dp799
I0
I1627
sI1
I330
sI2
I97
sI3
I3
stp800
Rp801
sg25
I4
sg26
F2059.0
sbs(g9
S'count(g)'
p802
tp803
g0
(g14
g2
Ntp804
Rp805
(dp806
g18
F0.5
sg19
I2057
sg20
g21
((dp807
I0
I1793
sI1
I241
sI2
I23
stp808
Rp809
sg25
I4
sg26
F2059.0
sbs(g9
S'count(f)'
p810
tp811
g0
(g14
g2
Ntp812
Rp813
(dp814
g18
F0.5
sg19
I2057
sg20
g21
((dp815
I0
I1899
sI1
I151
sI2
I7
stp816
Rp817
sg25
I3
sg26
F2058.5
sbs(g9
S'count(h)'
p818
tp819
g0
(g14
g2
Ntp820
Rp821
(dp822
g18
F0.5
sg19
I2057
sg20
g21
((dp823
I0
I1836
sI1
I218
sI2
I3
stp824
Rp825
sg25
I4
sg26
F2059.0
sbs(g9
S'count(k)'
p826
tp827
g0
(g14
g2
Ntp828
Rp829
(dp830
g18
F0.5
sg19
I2057
sg20
g21
((dp831
I0
I2023
sI1
I33
sI2
I1
stp832
Rp833
sg25
I3
sg26
F2058.5
sbs(g8
S'count(d)'
p834
tp835
g0
(g14
g2
Ntp836
Rp837
(dp838
g18
F0.5
sg19
I2943
sg20
g21
((dp839
I0
I2255
sI1
I621
sI2
I65
sI3
I2
stp840
Rp841
sg25
I4
sg26
F2945.0
sbs(g8
S'has(r)'
p842
tp843
g0
(g14
g2
Ntp844
Rp845
(dp846
g18
F0.5
sg19
I2943
sg20
g21
((dp847
I00
I1515
sI01
I1428
stp848
Rp849
sg25
I2
sg26
F2944.0
sbs(g8
S'has(v)'
p850
tp851
g0
(g14
g2
Ntp852
Rp853
(dp854
g18
F0.5
sg19
I2943
sg20
g21
((dp855
I00
I2740
sI01
I203
stp856
Rp857
sg25
I2
sg26
F2944.0
sbs(g9
S'has(y)'
p858
tp859
g0
(g14
g2
Ntp860
Rp861
(dp862
g18
F0.5
sg19
I2057
sg20
g21
((dp863
I00
I1715
sI01
I342
stp864
Rp865
sg25
I2
sg26
F2058.0
sbssS'_label_probdist'
p866
g0
(g14
g2
Ntp867
Rp868
(dp869
g18
F0.5
sg19
I5000
sg20
g21
((dp870
g8
I2943
sg9
I2057
stp871
Rp872
sg25
I2
sg26
F5001.0
sbsb.