ccopy_reg
_reconstructor
p0
(cnltk.classify.naivebayes
NaiveBayesClassifier
p1
c__builtin__
object
p2
Ntp3
Rp4
(dp5
S'_labels'
p6
(lp7
S'male'
p8
aS'female'
p9
asS'_feature_probdist'
p10
(dp11
(g9
S'has(h)'
p12
tp13
g0
(cnltk.probability
ELEProbDist
p14
g2
Ntp15
Rp16
(dp17
S'_gamma'
p18
F0.5
sS'_N'
p19
I2057
sS'_freqdist'
p20
cnltk.probability
FreqDist
p21
((dp22
I00
I1836
sI01
I221
stp23
Rp24
sS'_bins'
p25
I2
sS'_divisor'
p26
F2058.0
sbs(g9
S'has(s)'
p27
tp28
g0
(g14
g2
Ntp29
Rp30
(dp31
g18
F0.5
sg19
I2057
sg20
g21
((dp32
I00
I1726
sI01
I331
stp33
Rp34
sg25
I2
sg26
F2058.0
sbs(g8
S'has(a)'
p35
tp36
g0
(g14
g2
Ntp37
Rp38
(dp39
g18
F0.5
sg19
I2943
sg20
g21
((dp40
I00
I1463
sI01
I1480
stp41
Rp42
sg25
I2
sg26
F2944.0
sbs(g9
S'count(s)'
p43
tp44
g0
(g14
g2
Ntp45
Rp46
(dp47
g18
F0.5
sg19
I2057
sg20
g21
((dp48
I0
I1726
sI1
I270
sI2
I59
sI3
I2
stp49
Rp50
sg25
I4
sg26
F2059.0
sbs(g8
S'has(w)'
p51
tp52
g0
(g14
g2
Ntp53
Rp54
(dp55
g18
F0.5
sg19
I2943
sg20
g21
((dp56
I00
I2688
sI01
I255
stp57
Rp58
sg25
I2
sg26
F2944.0
sbs(g9
S'count(d)'
p59
tp60
g0
(g14
g2
Ntp61
Rp62
(dp63
g18
F0.5
sg19
I2057
sg20
g21
((dp64
I0
I1443
sI1
I575
sI2
I39
stp65
Rp66
sg25
I4
sg26
F2059.0
sbs(g9
S'end_with'
p67
tp68
g0
(g14
g2
Ntp69
Rp70
(dp71
g18
F0.5
sg19
I2057
sg20
g21
((dp72
S'\n'
p73
I2057
stp74
Rp75
sg25
I1
sg26
F2057.5
sbs(g8
S'has(p)'
p76
tp77
g0
(g14
g2
Ntp78
Rp79
(dp80
g18
F0.5
sg19
I2943
sg20
g21
((dp81
I00
I2751
sI01
I192
stp82
Rp83
sg25
I2
sg26
F2944.0
sbs(g9
S'has(e)'
p84
tp85
g0
(g14
g2
Ntp86
Rp87
(dp88
g18
F0.5
sg19
I2057
sg20
g21
((dp89
I00
I713
sI01
I1344
stp90
Rp91
sg25
I2
sg26
F2058.0
sbs(g8
S'count(o)'
p92
tp93
g0
(g14
g2
Ntp94
Rp95
(dp96
g18
F0.5
sg19
I2943
sg20
g21
((dp97
I0
I1950
sI1
I869
sI2
I112
sI3
I12
stp98
Rp99
sg25
I4
sg26
F2945.0
sbs(g8
S'count(b)'
p100
tp101
g0
(g14
g2
Ntp102
Rp103
(dp104
g18
F0.5
sg19
I2943
sg20
g21
((dp105
I0
I2586
sI1
I330
sI2
I23
sI3
I4
stp106
Rp107
sg25
I4
sg26
F2945.0
sbs(g9
S'has(l)'
p108
tp109
g0
(g14
g2
Ntp110
Rp111
(dp112
g18
F0.5
sg19
I2057
sg20
g21
((dp113
I00
I1184
sI01
I873
stp114
Rp115
sg25
I2
sg26
F2058.0
sbs(g9
S'count(w)'
p116
tp117
g0
(g14
g2
Ntp118
Rp119
(dp120
g18
F0.5
sg19
I2057
sg20
g21
((dp121
I0
I2045
sI1
I12
stp122
Rp123
sg25
I3
sg26
F2058.5
sbs(g9
S'has(w)'
p124
tp125
g0
(g14
g2
Ntp126
Rp127
(dp128
g18
F0.5
sg19
I2057
sg20
g21
((dp129
I00
I2045
sI01
I12
stp130
Rp131
sg25
I2
sg26
F2058.0
sbs(g8
S'has(q)'
p132
tp133
g0
(g14
g2
Ntp134
Rp135
(dp136
g18
F0.5
sg19
I2943
sg20
g21
((dp137
I00
I2921
sI01
I22
stp138
Rp139
sg25
I2
sg26
F2944.0
sbs(g8
S'count(p)'
p140
tp141
g0
(g14
g2
Ntp142
Rp143
(dp144
g18
F0.5
sg19
I2943
sg20
g21
((dp145
I0
I2751
sI1
I174
sI2
I17
sI3
I1
stp146
Rp147
sg25
I4
sg26
F2945.0
sbs(g9
S'has(j)'
p148
tp149
g0
(g14
g2
Ntp150
Rp151
(dp152
g18
F0.5
sg19
I2057
sg20
g21
((dp153
I00
I2048
sI01
I9
stp154
Rp155
sg25
I2
sg26
F2058.0
sbs(g9
S'has(u)'
p156
tp157
g0
(g14
g2
Ntp158
Rp159
(dp160
g18
F0.5
sg19
I2057
sg20
g21
((dp161
I00
I1932
sI01
I125
stp162
Rp163
sg25
I2
sg26
F2058.0
sbs(g9
S'has(n)'
p164
tp165
g0
(g14
g2
Ntp166
Rp167
(dp168
g18
F0.5
sg19
I2057
sg20
g21
((dp169
I00
I1150
sI01
I907
stp170
Rp171
sg25
I2
sg26
F2058.0
sbs(g8
S'count(w)'
p172
tp173
g0
(g14
g2
Ntp174
Rp175
(dp176
g18
F0.5
sg19
I2943
sg20
g21
((dp177
I0
I2688
sI1
I251
sI2
I4
stp178
Rp179
sg25
I3
sg26
F2944.5
sbs(g8
S'has(b)'
p180
tp181
g0
(g14
g2
Ntp182
Rp183
(dp184
g18
F0.5
sg19
I2943
sg20
g21
((dp185
I00
I2586
sI01
I357
stp186
Rp187
sg25
I2
sg26
F2944.0
sbs(g9
S'count(p)'
p188
tp189
g0
(g14
g2
Ntp190
Rp191
(dp192
g18
F0.5
sg19
I2057
sg20
g21
((dp193
I0
I2037
sI1
I17
sI2
I3
stp194
Rp195
sg25
I4
sg26
F2059.0
sbs(g8
S'has(j)'
p196
tp197
g0
(g14
g2
Ntp198
Rp199
(dp200
g18
F0.5
sg19
I2943
sg20
g21
((dp201
I00
I2780
sI01
I163
stp202
Rp203
sg25
I2
sg26
F2944.0
sbs(g8
S'has(n)'
p204
tp205
g0
(g14
g2
Ntp206
Rp207
(dp208
g18
F0.5
sg19
I2943
sg20
g21
((dp209
I00
I1827
sI01
I1116
stp210
Rp211
sg25
I2
sg26
F2944.0
sbs(g8
S'count(g)'
p212
tp213
g0
(g14
g2
Ntp214
Rp215
(dp216
g18
F0.5
sg19
I2943
sg20
g21
((dp217
I0
I2611
sI1
I304
sI2
I26
sI3
I2
stp218
Rp219
sg25
I4
sg26
F2945.0
sbs(g8
S'count(k)'
p220
tp221
g0
(g14
g2
Ntp222
Rp223
(dp224
g18
F0.5
sg19
I2943
sg20
g21
((dp225
I0
I2693
sI1
I246
sI2
I4
stp226
Rp227
sg25
I3
sg26
F2944.5
sbs(g8
S'count(n)'
p228
tp229
g0
(g14
g2
Ntp230
Rp231
(dp232
g18
F0.5
sg19
I2943
sg20
g21
((dp233
I0
I1827
sI1
I940
sI2
I166
sI3
I10
stp234
Rp235
sg25
I5
sg26
F2945.5
sbs(g8
S'has(o)'
p236
tp237
g0
(g14
g2
Ntp238
Rp239
(dp240
g18
F0.5
sg19
I2943
sg20
g21
((dp241
I00
I1950
sI01
I993
stp242
Rp243
sg25
I2
sg26
F2944.0
sbs(g8
S'has(h)'
p244
tp245
g0
(g14
g2
Ntp246
Rp247
(dp248
g18
F0.5
sg19
I2943
sg20
g21
((dp249
I00
I2352
sI01
I591
stp250
Rp251
sg25
I2
sg26
F2944.0
sbs(g9
S'has(a)'
p252
tp253
g0
(g14
g2
Ntp254
Rp255
(dp256
g18
F0.5
sg19
I2057
sg20
g21
((dp257
I00
I602
sI01
I1455
stp258
Rp259
sg25
I2
sg26
F2058.0
sbs(g8
S'count(s)'
p260
tp261
g0
(g14
g2
Ntp262
Rp263
(dp264
g18
F0.5
sg19
I2943
sg20
g21
((dp265
I0
I2219
sI1
I646
sI2
I76
sI3
I2
stp266
Rp267
sg25
I4
sg26
F2945.0
sbs(g9
S'alwayson'
p268
tp269
g0
(g14
g2
Ntp270
Rp271
(dp272
g18
F0.5
sg19
I2057
sg20
g21
((dp273
I01
I2057
stp274
Rp275
sg25
I1
sg26
F2057.5
sbs(g9
S'starts_with'
p276
tp277
g0
(g14
g2
Ntp278
Rp279
(dp280
g18
F0.5
sg19
I2057
sg20
g21
((dp281
S'a'
p282
I443
sS'c'
p283
I469
sS'b'
p284
I246
sS'e'
p285
I251
sS'd'
p286
I308
sS'g'
p287
I196
sS'f'
p288
I144
stp289
Rp290
sg25
I26
sg26
F2070.0
sbs(g9
S'has(d)'
p291
tp292
g0
(g14
g2
Ntp293
Rp294
(dp295
g18
F0.5
sg19
I2057
sg20
g21
((dp296
I00
I1443
sI01
I614
stp297
Rp298
sg25
I2
sg26
F2058.0
sbs(g9
S'has(o)'
p299
tp300
g0
(g14
g2
Ntp301
Rp302
(dp303
g18
F0.5
sg19
I2057
sg20
g21
((dp304
I00
I1669
sI01
I388
stp305
Rp306
sg25
I2
sg26
F2058.0
sbs(g8
S'has(i)'
p307
tp308
g0
(g14
g2
Ntp309
Rp310
(dp311
g18
F0.5
sg19
I2943
sg20
g21
((dp312
I00
I1809
sI01
I1134
stp313
Rp314
sg25
I2
sg26
F2944.0
sbs(g9
S'count(y)'
p315
tp316
g0
(g14
g2
Ntp317
Rp318
(dp319
g18
F0.5
sg19
I2057
sg20
g21
((dp320
I0
I1715
sI1
I340
sI2
I2
stp321
Rp322
sg25
I3
sg26
F2058.5
sbs(g9
S'count(b)'
p323
tp324
g0
(g14
g2
Ntp325
Rp326
(dp327
g18
F0.5
sg19
I2057
sg20
g21
((dp328
I0
I1705
sI1
I308
sI2
I39
sI3
I5
stp329
Rp330
sg25
I4
sg26
F2059.0
sbs(g9
S'count(m)'
p331
tp332
g0
(g14
g2
Ntp333
Rp334
(dp335
g18
F0.5
sg19
I2057
sg20
g21
((dp336
I0
I1883
sI1
I156
sI2
I17
sI3
I1
stp337
Rp338
sg25
I4
sg26
F2059.0
sbs(g8
S'has(l)'
p339
tp340
g0
(g14
g2
Ntp341
Rp342
(dp343
g18
F0.5
sg19
I2943
sg20
g21
((dp344
I00
I1986
sI01
I957
stp345
Rp346
sg25
I2
sg26
F2944.0
sbs(g9
S'has(f)'
p347
tp348
g0
(g14
g2
Ntp349
Rp350
(dp351
g18
F0.5
sg19
I2057
sg20
g21
((dp352
I00
I1899
sI01
I158
stp353
Rp354
sg25
I2
sg26
F2058.0
sbs(g9
S'has(q)'
p355
tp356
g0
(g14
g2
Ntp357
Rp358
(dp359
g18
F0.5
sg19
I2057
sg20
g21
((dp360
I00
I2053
sI01
I4
stp361
Rp362
sg25
I2
sg26
F2058.0
sbs(g8
g276
tp363
g0
(g14
g2
Ntp364
Rp365
(dp366
g18
F0.5
sg19
I2943
sg20
g21
((dp367
g282
I213
sg283
I166
sg284
I173
sg285
I119
sg286
I146
sg287
I156
sg288
I87
sS'i'
p368
I45
sS'h'
p369
I163
sS'k'
p370
I70
sS'j'
p371
I144
sS'm'
p372
I200
sS'l'
p373
I113
sS'o'
p374
I52
sS'n'
p375
I77
sS'q'
p376
I15
sS'p'
p377
I101
sS's'
p378
I238
sS'r'
p379
I200
sS'u'
p380
I22
sS't'
p381
I188
sS'w'
p382
I151
sS'v'
p383
I50
sS'y'
p384
I16
sS'x'
p385
I7
sS'z'
p386
I31
stp387
Rp388
sg25
I26
sg26
F2956.0
sbs(g8
S'count(z)'
p389
tp390
g0
(g14
g2
Ntp391
Rp392
(dp393
g18
F0.5
sg19
I2943
sg20
g21
((dp394
I0
I2868
sI1
I71
sI2
I4
stp395
Rp396
sg25
I3
sg26
F2944.5
sbs(g9
S'has(t)'
p397
tp398
g0
(g14
g2
Ntp399
Rp400
(dp401
g18
F0.5
sg19
I2057
sg20
g21
((dp402
I00
I1627
sI01
I430
stp403
Rp404
sg25
I2
sg26
F2058.0
sbs(g9
S'has(x)'
p405
tp406
g0
(g14
g2
Ntp407
Rp408
(dp409
g18
F0.5
sg19
I2057
sg20
g21
((dp410
I00
I2043
sI01
I14
stp411
Rp412
sg25
I2
sg26
F2058.0
sbs(g8
S'count(y)'
p413
tp414
g0
(g14
g2
Ntp415
Rp416
(dp417
g18
F0.5
sg19
I2943
sg20
g21
((dp418
I0
I2456
sI1
I482
sI2
I5
stp419
Rp420
sg25
I3
sg26
F2944.5
sbs(g8
S'has(m)'
p421
tp422
g0
(g14
g2
Ntp423
Rp424
(dp425
g18
F0.5
sg19
I2943
sg20
g21
((dp426
I00
I2423
sI01
I520
stp427
Rp428
sg25
I2
sg26
F2944.0
sbs(g9
S'count(u)'
p429
tp430
g0
(g14
g2
Ntp431
Rp432
(dp433
g18
F0.5
sg19
I2057
sg20
g21
((dp434
I0
I1932
sI1
I121
sI2
I4
stp435
Rp436
sg25
I4
sg26
F2059.0
sbs(g8
S'count(m)'
p437
tp438
g0
(g14
g2
Ntp439
Rp440
(dp441
g18
F0.5
sg19
I2943
sg20
g21
((dp442
I0
I2423
sI1
I477
sI2
I40
sI3
I3
stp443
Rp444
sg25
I4
sg26
F2945.0
sbs(g9
S'count(i)'
p445
tp446
g0
(g14
g2
Ntp447
Rp448
(dp449
g18
F0.5
sg19
I2057
sg20
g21
((dp450
I0
I984
sI1
I971
sI2
I102
stp451
Rp452
sg25
I4
sg26
F2059.0
sbs(g8
S'has(f)'
p453
tp454
g0
(g14
g2
Ntp455
Rp456
(dp457
g18
F0.5
sg19
I2943
sg20
g21
((dp458
I00
I2742
sI01
I201
stp459
Rp460
sg25
I2
sg26
F2944.0
sbs(g9
S'count(c)'
p461
tp462
g0
(g14
g2
Ntp463
Rp464
(dp465
g18
F0.5
sg19
I2057
sg20
g21
((dp466
I0
I1475
sI1
I553
sI2
I29
stp467
Rp468
sg25
I3
sg26
F2058.5
sbs(g8
S'has(e)'
p469
tp470
g0
(g14
g2
Ntp471
Rp472
(dp473
g18
F0.5
sg19
I2943
sg20
g21
((dp474
I00
I1338
sI01
I1605
stp475
Rp476
sg25
I2
sg26
F2944.0
sbs(g8
S'count(v)'
p477
tp478
g0
(g14
g2
Ntp479
Rp480
(dp481
g18
F0.5
sg19
I2943
sg20
g21
((dp482
I0
I2740
sI1
I202
sI2
I1
stp483
Rp484
sg25
I3
sg26
F2944.5
sbs(g8
S'count(j)'
p485
tp486
g0
(g14
g2
Ntp487
Rp488
(dp489
g18
F0.5
sg19
I2943
sg20
g21
((dp490
I0
I2780
sI1
I163
stp491
Rp492
sg25
I2
sg26
F2944.0
sbs(g8
S'has(g)'
p493
tp494
g0
(g14
g2
Ntp495
Rp496
(dp497
g18
F0.5
sg19
I2943
sg20
g21
((dp498
I00
I2611
sI01
I332
stp499
Rp500
sg25
I2
sg26
F2944.0
sbs(g8
S'count(u)'
p501
tp502
g0
(g14
g2
Ntp503
Rp504
(dp505
g18
F0.5
sg19
I2943
sg20
g21
((dp506
I0
I2523
sI1
I407
sI2
I12
sI3
I1
stp507
Rp508
sg25
I4
sg26
F2945.0
sbs(g8
S'has(k)'
p509
tp510
g0
(g14
g2
Ntp511
Rp512
(dp513
g18
F0.5
sg19
I2943
sg20
g21
((dp514
I00
I2693
sI01
I250
stp515
Rp516
sg25
I2
sg26
F2944.0
sbs(g8
S'count(i)'
p517
tp518
g0
(g14
g2
Ntp519
Rp520
(dp521
g18
F0.5
sg19
I2943
sg20
g21
((dp522
I0
I1809
sI1
I1027
sI2
I100
sI3
I7
stp523
Rp524
sg25
I4
sg26
F2945.0
sbs(g9
S'count(e)'
p525
tp526
g0
(g14
g2
Ntp527
Rp528
(dp529
g18
F0.5
sg19
I2057
sg20
g21
((dp530
I0
I713
sI1
I870
sI2
I404
sI3
I64
sI4
I6
stp531
Rp532
sg25
I5
sg26
F2059.5
sbs(g9
S'count(n)'
p533
tp534
g0
(g14
g2
Ntp535
Rp536
(dp537
g18
F0.5
sg19
I2057
sg20
g21
((dp538
I0
I1150
sI1
I683
sI2
I209
sI3
I13
sI4
I2
stp539
Rp540
sg25
I5
sg26
F2059.5
sbs(g9
S'has(z)'
p541
tp542
g0
(g14
g2
Ntp543
Rp544
(dp545
g18
F0.5
sg19
I2057
sg20
g21
((dp546
I00
I2047
sI01
I10
stp547
Rp548
sg25
I2
sg26
F2058.0
sbs(g8
S'count(r)'
p549
tp550
g0
(g14
g2
Ntp551
Rp552
(dp553
g18
F0.5
sg19
I2943
sg20
g21
((dp554
I0
I1515
sI1
I1229
sI2
I195
sI3
I4
stp555
Rp556
sg25
I4
sg26
F2945.0
sbs(g8
S'count(f)'
p557
tp558
g0
(g14
g2
Ntp559
Rp560
(dp561
g18
F0.5
sg19
I2943
sg20
g21
((dp562
I0
I2742
sI1
I163
sI2
I38
stp563
Rp564
sg25
I3
sg26
F2944.5
sbs(g9
S'has(g)'
p565
tp566
g0
(g14
g2
Ntp567
Rp568
(dp569
g18
F0.5
sg19
I2057
sg20
g21
((dp570
I00
I1793
sI01
I264
stp571
Rp572
sg25
I2
sg26
F2058.0
sbs(g9
S'has(k)'
p573
tp574
g0
(g14
g2
Ntp575
Rp576
(dp577
g18
F0.5
sg19
I2057
sg20
g21
((dp578
I00
I2023
sI01
I34
stp579
Rp580
sg25
I2
sg26
F2058.0
sbs(g8
S'count(e)'
p581
tp582
g0
(g14
g2
Ntp583
Rp584
(dp585
g18
F0.5
sg19
I2943
sg20
g21
((dp586
I0
I1338
sI1
I1284
sI2
I292
sI3
I26
sI4
I3
stp587
Rp588
sg25
I5
sg26
F2945.5
sbs(g8
S'has(d)'
p589
tp590
g0
(g14
g2
Ntp591
Rp592
(dp593
g18
F0.5
sg19
I2943
sg20
g21
((dp594
I00
I2255
sI01
I688
stp595
Rp596
sg25
I2
sg26
F2944.0
sbs(g9
S'has(i)'
p597
tp598
g0
(g14
g2
Ntp599
Rp600
(dp601
g18
F0.5
sg19
I2057
sg20
g21
((dp602
I00
I984
sI01
I1073
stp603
Rp604
sg25
I2
sg26
F2058.0
sbs(g8
S'has(z)'
p605
tp606
g0
(g14
g2
Ntp607
Rp608
(dp609
g18
F0.5
sg19
I2943
sg20
g21
((dp610
I00
I2868
sI01
I75
stp611
Rp612
sg25
I2
sg26
F2944.0
sbs(g9
S'has(b)'
p613
tp614
g0
(g14
g2
Ntp615
Rp616
(dp617
g18
F0.5
sg19
I2057
sg20
g21
((dp618
I00
I1705
sI01
I352
stp619
Rp620
sg25
I2
sg26
F2058.0
sbs(g9
S'has(p)'
p621
tp622
g0
(g14
g2
Ntp623
Rp624
(dp625
g18
F0.5
sg19
I2057
sg20
g21
((dp626
I00
I2037
sI01
I20
stp627
Rp628
sg25
I2
sg26
F2058.0
sbs(g8
g268
tp629
g0
(g14
g2
Ntp630
Rp631
(dp632
g18
F0.5
sg19
I2943
sg20
g21
((dp633
I01
I2943
stp634
Rp635
sg25
I1
sg26
F2943.5
sbs(g9
S'count(q)'
p636
tp637
g0
(g14
g2
Ntp638
Rp639
(dp640
g18
F0.5
sg19
I2057
sg20
g21
((dp641
I0
I2053
sI1
I4
stp642
Rp643
sg25
I2
sg26
F2058.0
sbs(g9
S'count(z)'
p644
tp645
g0
(g14
g2
Ntp646
Rp647
(dp648
g18
F0.5
sg19
I2057
sg20
g21
((dp649
I0
I2047
sI1
I10
stp650
Rp651
sg25
I3
sg26
F2058.5
sbs(g9
S'count(o)'
p652
tp653
g0
(g14
g2
Ntp654
Rp655
(dp656
g18
F0.5
sg19
I2057
sg20
g21
((dp657
I0
I1669
sI1
I363
sI2
I25
stp658
Rp659
sg25
I4
sg26
F2059.0
sbs(g8
S'has(t)'
p660
tp661
g0
(g14
g2
Ntp662
Rp663
(dp664
g18
F0.5
sg19
I2943
sg20
g21
((dp665
I00
I2179
sI01
I764
stp666
Rp667
sg25
I2
sg26
F2944.0
sbs(g8
S'count(x)'
p668
tp669
g0
(g14
g2
Ntp670
Rp671
(dp672
g18
F0.5
sg19
I2943
sg20
g21
((dp673
I0
I2911
sI1
I31
sI2
I1
stp674
Rp675
sg25
I3
sg26
F2944.5
sbs(g8
S'has(x)'
p676
tp677
g0
(g14
g2
Ntp678
Rp679
(dp680
g18
F0.5
sg19
I2943
sg20
g21
((dp681
I00
I2911
sI01
I32
stp682
Rp683
sg25
I2
sg26
F2944.0
sbs(g8
S'count(l)'
p684
tp685
g0
(g14
g2
Ntp686
Rp687
(dp688
g18
F0.5
sg19
I2943
sg20
g21
((dp689
I0
I1986
sI1
I786
sI2
I165
sI3
I5
sI4
I1
stp690
Rp691
sg25
I5
sg26
F2945.5
sbs(g9
S'has(m)'
p692
tp693
g0
(g14
g2
Ntp694
Rp695
(dp696
g18
F0.5
sg19
I2057
sg20
g21
((dp697
I00
I1883
sI01
I174
stp698
Rp699
sg25
I2
sg26
F2058.0
sbs(g8
S'count(c)'
p700
tp701
g0
(g14
g2
Ntp702
Rp703
(dp704
g18
F0.5
sg19
I2943
sg20
g21
((dp705
I0
I2461
sI1
I464
sI2
I18
stp706
Rp707
sg25
I3
sg26
F2944.5
sbs(g8
S'has(c)'
p708
tp709
g0
(g14
g2
Ntp710
Rp711
(dp712
g18
F0.5
sg19
I2943
sg20
g21
((dp713
I00
I2461
sI01
I482
stp714
Rp715
sg25
I2
sg26
F2944.0
sbs(g8
S'count(q)'
p716
tp717
g0
(g14
g2
Ntp718
Rp719
(dp720
g18
F0.5
sg19
I2943
sg20
g21
((dp721
I0
I2921
sI1
I22
stp722
Rp723
sg25
I2
sg26
F2944.0
sbs(g8
S'has(u)'
p724
tp725
g0
(g14
g2
Ntp726
Rp727
(dp728
g18
F0.5
sg19
I2943
sg20
g21
((dp729
I00
I2523
sI01
I420
stp730
Rp731
sg25
I2
sg26
F2944.0
sbs(g8
S'has(y)'
p732
tp733
g0
(g14
g2
Ntp734
Rp735
(dp736
g18
F0.5
sg19
I2943
sg20
g21
((dp737
I00
I2456
sI01
I487
stp738
Rp739
sg25
I2
sg26
F2944.0
sbs(g9
S'count(v)'
p740
tp741
g0
(g14
g2
Ntp742
Rp743
(dp744
g18
F0.5
sg19
I2057
sg20
g21
((dp745
I0
I1974
sI1
I76
sI2
I7
stp746
Rp747
sg25
I3
sg26
F2058.5
sbs(g9
S'count(a)'
p748
tp749
g0
(g14
g2
Ntp750
Rp751
(dp752
g18
F0.5
sg19
I2057
sg20
g21
((dp753
I0
I602
sI1
I950
sI2
I433
sI3
I62
sI4
I10
stp754
Rp755
sg25
I5
sg26
F2059.5
sbs(g9
S'count(x)'
p756
tp757
g0
(g14
g2
Ntp758
Rp759
(dp760
g18
F0.5
sg19
I2057
sg20
g21
((dp761
I0
I2043
sI1
I14
stp762
Rp763
sg25
I3
sg26
F2058.5
sbs(g9
S'count(j)'
p764
tp765
g0
(g14
g2
Ntp766
Rp767
(dp768
g18
F0.5
sg19
I2057
sg20
g21
((dp769
I0
I2048
sI1
I9
stp770
Rp771
sg25
I2
sg26
F2058.0
sbs(g8
S'count(t)'
p772
tp773
g0
(g14
g2
Ntp774
Rp775
(dp776
g18
F0.5
sg19
I2943
sg20
g21
((dp777
I0
I2179
sI1
I672
sI2
I91
sI3
I1
stp778
Rp779
sg25
I4
sg26
F2945.0
sbs(g9
S'count(l)'
p780
tp781
g0
(g14
g2
Ntp782
Rp783
(dp784
g18
F0.5
sg19
I2057
sg20
g21
((dp785
I0
I1184
sI1
I713
sI2
I155
sI3
I5
stp786
Rp787
sg25
I5
sg26
F2059.5
sbs(g8
S'count(h)'
p788
tp789
g0
(g14
g2
Ntp790
Rp791
(dp792
g18
F0.5
sg19
I2943
sg20
g21
((dp793
I0
I2352
sI1
I553
sI2
I37
sI3
I1
stp794
Rp795
sg25
I4
sg26
F2945.0
sbs(g9
S'has(r)'
p796
tp797
g0
(g14
g2
Ntp798
Rp799
(dp800
g18
F0.5
sg19
I2057
sg20
g21
((dp801
I00
I1133
sI01
I924
stp802
Rp803
sg25
I2
sg26
F2058.0
sbs(g9
S'has(v)'
p804
tp805
g0
(g14
g2
Ntp806
Rp807
(dp808
g18
F0.5
sg19
I2057
sg20
g21
((dp809
I00
I1974
sI01
I83
stp810
Rp811
sg25
I2
sg26
F2058.0
sbs(g9
S'has(c)'
p812
tp813
g0
(g14
g2
Ntp814
Rp815
(dp816
g18
F0.5
sg19
I2057
sg20
g21
((dp817
I00
I1475
sI01
I582
stp818
Rp819
sg25
I2
sg26
F2058.0
sbs(g8
S'has(s)'
p820
tp821
g0
(g14
g2
Ntp822
Rp823
(dp824
g18
F0.5
sg19
I2943
sg20
g21
((dp825
I00
I2219
sI01
I724
stp826
Rp827
sg25
I2
sg26
F2944.0
sbs(g8
S'count(a)'
p828
tp829
g0
(g14
g2
Ntp830
Rp831
(dp832
g18
F0.5
sg19
I2943
sg20
g21
((dp833
I0
I1463
sI1
I1290
sI2
I177
sI3
I13
stp834
Rp835
sg25
I5
sg26
F2945.5
sbs(g9
S'count(r)'
p836
tp837
g0
(g14
g2
Ntp838
Rp839
(dp840
g18
F0.5
sg19
I2057
sg20
g21
((dp841
I0
I1133
sI1
I851
sI2
I73
stp842
Rp843
sg25
I4
sg26
F2059.0
sbs(g9
S'count(t)'
p844
tp845
g0
(g14
g2
Ntp846
Rp847
(dp848
g18
F0.5
sg19
I2057
sg20
g21
((dp849
I0
I1627
sI1
I330
sI2
I97
sI3
I3
stp850
Rp851
sg25
I4
sg26
F2059.0
sbs(g9
S'count(g)'
p852
tp853
g0
(g14
g2
Ntp854
Rp855
(dp856
g18
F0.5
sg19
I2057
sg20
g21
((dp857
I0
I1793
sI1
I241
sI2
I23
stp858
Rp859
sg25
I4
sg26
F2059.0
sbs(g9
S'count(f)'
p860
tp861
g0
(g14
g2
Ntp862
Rp863
(dp864
g18
F0.5
sg19
I2057
sg20
g21
((dp865
I0
I1899
sI1
I151
sI2
I7
stp866
Rp867
sg25
I3
sg26
F2058.5
sbs(g9
S'count(h)'
p868
tp869
g0
(g14
g2
Ntp870
Rp871
(dp872
g18
F0.5
sg19
I2057
sg20
g21
((dp873
I0
I1836
sI1
I218
sI2
I3
stp874
Rp875
sg25
I4
sg26
F2059.0
sbs(g9
S'count(k)'
p876
tp877
g0
(g14
g2
Ntp878
Rp879
(dp880
g18
F0.5
sg19
I2057
sg20
g21
((dp881
I0
I2023
sI1
I33
sI2
I1
stp882
Rp883
sg25
I3
sg26
F2058.5
sbs(g8
S'count(d)'
p884
tp885
g0
(g14
g2
Ntp886
Rp887
(dp888
g18
F0.5
sg19
I2943
sg20
g21
((dp889
I0
I2255
sI1
I621
sI2
I65
sI3
I2
stp890
Rp891
sg25
I4
sg26
F2945.0
sbs(g8
S'has(r)'
p892
tp893
g0
(g14
g2
Ntp894
Rp895
(dp896
g18
F0.5
sg19
I2943
sg20
g21
((dp897
I00
I1515
sI01
I1428
stp898
Rp899
sg25
I2
sg26
F2944.0
sbs(g8
g67
tp900
g0
(g14
g2
Ntp901
Rp902
(dp903
g18
F0.5
sg19
I2943
sg20
g21
((dp904
g73
I2943
stp905
Rp906
sg25
I1
sg26
F2943.5
sbs(g8
S'has(v)'
p907
tp908
g0
(g14
g2
Ntp909
Rp910
(dp911
g18
F0.5
sg19
I2943
sg20
g21
((dp912
I00
I2740
sI01
I203
stp913
Rp914
sg25
I2
sg26
F2944.0
sbs(g9
S'has(y)'
p915
tp916
g0
(g14
g2
Ntp917
Rp918
(dp919
g18
F0.5
sg19
I2057
sg20
g21
((dp920
I00
I1715
sI01
I342
stp921
Rp922
sg25
I2
sg26
F2058.0
sbssS'_label_probdist'
p923
g0
(g14
g2
Ntp924
Rp925
(dp926
g18
F0.5
sg19
I5000
sg20
g21
((dp927
g8
I2943
sg9
I2057
stp928
Rp929
sg25
I2
sg26
F5001.0
sbsb.